; ModuleID = '21/1566.c'
source_filename = "21/1566.c"
target datalayout = "e-m:e-p270:32:32-p271:32:32-p272:64:64-i64:64-f80:128-n8:16:32:64-S128"
target triple = "x86_64-pc-linux-gnu"

@.str = private unnamed_addr constant [3 x i8] c"%d\00", align 1
@.str.1 = private unnamed_addr constant [2 x i8] c",\00", align 1

; Function Attrs: noinline nounwind uwtable
define dso_local void @main() #0 {
  %1 = alloca i32, align 4
  %2 = alloca i32, align 4
  %3 = alloca i32, align 4
  %4 = alloca float, align 4
  %5 = alloca [300 x i32], align 16
  %6 = alloca float, align 4
  %7 = alloca i32, align 4
  store i32 0, i32* %3, align 4
  store float 0.000000e+00, float* %4, align 4
  %8 = call i32 (i8*, ...) @__isoc99_scanf(i8* getelementptr inbounds ([3 x i8], [3 x i8]* @.str, i64 0, i64 0), i32* %1)
  store i32 0, i32* %2, align 4
  br label %9

9:                                                ; preds = %25, %0
  %10 = load i32, i32* %2, align 4
  %11 = load i32, i32* %1, align 4
  %12 = icmp slt i32 %10, %11
  br i1 %12, label %13, label %28

13:                                               ; preds = %9
  %14 = load i32, i32* %2, align 4
  %15 = sext i32 %14 to i64
  %16 = getelementptr inbounds [300 x i32], [300 x i32]* %5, i64 0, i64 %15
  %17 = call i32 (i8*, ...) @__isoc99_scanf(i8* getelementptr inbounds ([3 x i8], [3 x i8]* @.str, i64 0, i64 0), i32* %16)
  %18 = load float, float* %4, align 4
  %19 = load i32, i32* %2, align 4
  %20 = sext i32 %19 to i64
  %21 = getelementptr inbounds [300 x i32], [300 x i32]* %5, i64 0, i64 %20
  %22 = load i32, i32* %21, align 4
  %23 = sitofp i32 %22 to float
  %24 = fadd float %18, %23
  store float %24, float* %4, align 4
  br label %25

25:                                               ; preds = %13
  %26 = load i32, i32* %2, align 4
  %27 = add nsw i32 %26, 1
  store i32 %27, i32* %2, align 4
  br label %9

28:                                               ; preds = %9
  %29 = load float, float* %4, align 4
  %30 = load i32, i32* %1, align 4
  %31 = sitofp i32 %30 to float
  %32 = fdiv float %29, %31
  store float %32, float* %6, align 4
  store i32 0, i32* %7, align 4
  store i32 1, i32* %2, align 4
  br label %33

33:                                               ; preds = %60, %28
  %34 = load i32, i32* %2, align 4
  %35 = load i32, i32* %1, align 4
  %36 = icmp slt i32 %34, %35
  br i1 %36, label %37, label %63

37:                                               ; preds = %33
  %38 = load i32, i32* %7, align 4
  %39 = sext i32 %38 to i64
  %40 = getelementptr inbounds [300 x i32], [300 x i32]* %5, i64 0, i64 %39
  %41 = load i32, i32* %40, align 4
  %42 = sitofp i32 %41 to float
  %43 = load float, float* %6, align 4
  %44 = fsub float %42, %43
  %45 = fpext float %44 to double
  %46 = call double @llvm.fabs.f64(double %45)
  %47 = load i32, i32* %2, align 4
  %48 = sext i32 %47 to i64
  %49 = getelementptr inbounds [300 x i32], [300 x i32]* %5, i64 0, i64 %48
  %50 = load i32, i32* %49, align 4
  %51 = sitofp i32 %50 to float
  %52 = load float, float* %6, align 4
  %53 = fsub float %51, %52
  %54 = fpext float %53 to double
  %55 = call double @llvm.fabs.f64(double %54)
  %56 = fcmp olt double %46, %55
  br i1 %56, label %57, label %59

57:                                               ; preds = %37
  %58 = load i32, i32* %2, align 4
  store i32 %58, i32* %7, align 4
  br label %59

59:                                               ; preds = %57, %37
  br label %60

60:                                               ; preds = %59
  %61 = load i32, i32* %2, align 4
  %62 = add nsw i32 %61, 1
  store i32 %62, i32* %2, align 4
  br label %33

63:                                               ; preds = %33
  store i32 0, i32* %2, align 4
  br label %64

64:                                               ; preds = %106, %63
  %65 = load i32, i32* %2, align 4
  %66 = load i32, i32* %1, align 4
  %67 = icmp slt i32 %65, %66
  br i1 %67, label %68, label %109

68:                                               ; preds = %64
  %69 = load i32, i32* %7, align 4
  %70 = sext i32 %69 to i64
  %71 = getelementptr inbounds [300 x i32], [300 x i32]* %5, i64 0, i64 %70
  %72 = load i32, i32* %71, align 4
  %73 = sitofp i32 %72 to float
  %74 = load float, float* %6, align 4
  %75 = fsub float %73, %74
  %76 = fpext float %75 to double
  %77 = call double @llvm.fabs.f64(double %76)
  %78 = load i32, i32* %2, align 4
  %79 = sext i32 %78 to i64
  %80 = getelementptr inbounds [300 x i32], [300 x i32]* %5, i64 0, i64 %79
  %81 = load i32, i32* %80, align 4
  %82 = sitofp i32 %81 to float
  %83 = load float, float* %6, align 4
  %84 = fsub float %82, %83
  %85 = fpext float %84 to double
  %86 = call double @llvm.fabs.f64(double %85)
  %87 = fcmp oeq double %77, %86
  br i1 %87, label %88, label %105

88:                                               ; preds = %68
  %89 = load i32, i32* %3, align 4
  %90 = icmp ne i32 %89, 0
  br i1 %90, label %91, label %93

91:                                               ; preds = %88
  %92 = call i32 (i8*, ...) @printf(i8* getelementptr inbounds ([2 x i8], [2 x i8]* @.str.1, i64 0, i64 0))
  br label %93

93:                                               ; preds = %91, %88
  %94 = load i32, i32* %2, align 4
  %95 = sext i32 %94 to i64
  %96 = getelementptr inbounds [300 x i32], [300 x i32]* %5, i64 0, i64 %95
  %97 = load i32, i32* %96, align 4
  %98 = call i32 (i8*, ...) @printf(i8* getelementptr inbounds ([3 x i8], [3 x i8]* @.str, i64 0, i64 0), i32 %97)
  %99 = load i32, i32* %3, align 4
  %100 = icmp eq i32 %99, 0
  br i1 %100, label %101, label %104

101:                                              ; preds = %93
  %102 = load i32, i32* %3, align 4
  %103 = add nsw i32 %102, 1
  store i32 %103, i32* %3, align 4
  br label %104

104:                                              ; preds = %101, %93
  br label %105

105:                                              ; preds = %104, %68
  br label %106

106:                                              ; preds = %105
  %107 = load i32, i32* %2, align 4
  %108 = add nsw i32 %107, 1
  store i32 %108, i32* %2, align 4
  br label %64

109:                                              ; preds = %64
  ret void
}

declare dso_local i32 @__isoc99_scanf(i8*, ...) #1

; Function Attrs: nounwind readnone speculatable willreturn
declare double @llvm.fabs.f64(double) #2

declare dso_local i32 @printf(i8*, ...) #1


!llvm.module.flags = !{!0}
!llvm.ident = !{!1}

!0 = !{i32 1, !"wchar_size", i32 4}
!1 = !{!"clang version 10.0.0-4ubuntu1 "}
